target datalayout = "e-m:e-p270:32:32-p271:32:32-p272:64:64-i64:64-i128:128-f80:128-n8:16:32:64-S128"
target triple = "x86_64-unknown-linux-gnu"

module asm ".section \22.export_symbol\22,\22a\22 ; __export_symbol_nf_register_sockopt: ; .asciz \22\22 ; .asciz \22\22 ; .balign 8 ; .quad nf_register_sockopt ; .previous"
module asm ".section \22.export_symbol\22,\22a\22 ; __export_symbol_nf_unregister_sockopt: ; .asciz \22\22 ; .asciz \22\22 ; .balign 8 ; .quad nf_unregister_sockopt ; .previous"
module asm ".section \22.export_symbol\22,\22a\22 ; __export_symbol_nf_setsockopt: ; .asciz \22\22 ; .asciz \22\22 ; .balign 8 ; .quad nf_setsockopt ; .previous"
module asm ".section \22.export_symbol\22,\22a\22 ; __export_symbol_nf_getsockopt: ; .asciz \22\22 ; .asciz \22\22 ; .balign 8 ; .quad nf_getsockopt ; .previous"

%struct.mutex = type { %struct.atomic64_t, %struct.raw_spinlock, %struct.optimistic_spin_queue, %struct.list_head }
%struct.atomic64_t = type { i64 }
%struct.raw_spinlock = type { %struct.qspinlock }
%struct.qspinlock = type { %union.anon }
%union.anon = type { %struct.atomic_t }
%struct.atomic_t = type { i32 }
%struct.optimistic_spin_queue = type { %struct.atomic_t }
%struct.list_head = type { ptr, ptr }

@nf_sockopt_mutex = internal global %struct.mutex { %struct.atomic64_t zeroinitializer, %struct.raw_spinlock zeroinitializer, %struct.optimistic_spin_queue zeroinitializer, %struct.list_head { ptr getelementptr (i8, ptr @nf_sockopt_mutex, i64 16), ptr getelementptr (i8, ptr @nf_sockopt_mutex, i64 16) } }, align 8
@nf_sockopts = internal global %struct.list_head { ptr @nf_sockopts, ptr @nf_sockopts }, align 8
@__UNIQUE_ID___addressable_nf_register_sockopt685 = internal global ptr @nf_register_sockopt, section ".discard.addressable", align 8
@__UNIQUE_ID___addressable_nf_unregister_sockopt686 = internal global ptr @nf_unregister_sockopt, section ".discard.addressable", align 8
@__UNIQUE_ID___addressable_nf_setsockopt687 = internal global ptr @nf_setsockopt, section ".discard.addressable", align 8
@__UNIQUE_ID___addressable_nf_getsockopt688 = internal global ptr @nf_getsockopt, section ".discard.addressable", align 8
@llvm.compiler.used = appending global [4 x ptr] [ptr @__UNIQUE_ID___addressable_nf_getsockopt688, ptr @__UNIQUE_ID___addressable_nf_register_sockopt685, ptr @__UNIQUE_ID___addressable_nf_setsockopt687, ptr @__UNIQUE_ID___addressable_nf_unregister_sockopt686], section "llvm.metadata"

; Function Attrs: fn_ret_thunk_extern nounwind null_pointer_is_valid
define dso_local noundef i32 @nf_register_sockopt(ptr noundef %0) #0 align 16 {
  tail call void @mutex_lock(ptr noundef nonnull @nf_sockopt_mutex) #2
  %2 = load ptr, ptr @nf_sockopts, align 8
  %3 = icmp eq ptr %2, @nf_sockopts
  br i1 %3, label %39, label %4

4:                                                ; preds = %1
  %5 = getelementptr inbounds i8, ptr %0, i64 16
  %6 = load i8, ptr %5, align 8
  %7 = getelementptr inbounds i8, ptr %0, i64 20
  %8 = getelementptr inbounds i8, ptr %0, i64 24
  %9 = getelementptr inbounds i8, ptr %0, i64 40
  %10 = getelementptr inbounds i8, ptr %0, i64 44
  br label %11

11:                                               ; preds = %36, %4
  %12 = phi ptr [ %2, %4 ], [ %37, %36 ]
  %13 = getelementptr inbounds i8, ptr %12, i64 16
  %14 = load i8, ptr %13, align 8
  %15 = icmp eq i8 %14, %6
  br i1 %15, label %16, label %36

16:                                               ; preds = %11
  %17 = getelementptr inbounds i8, ptr %12, i64 20
  %18 = load i32, ptr %17, align 4
  %19 = getelementptr inbounds i8, ptr %12, i64 24
  %20 = load i32, ptr %19, align 8
  %21 = load i32, ptr %7, align 4
  %22 = load i32, ptr %8, align 8
  %23 = icmp sle i32 %20, %21
  %24 = icmp sge i32 %18, %22
  %25 = or i1 %23, %24
  br i1 %25, label %26, label %43

26:                                               ; preds = %16
  %27 = getelementptr inbounds i8, ptr %12, i64 40
  %28 = load i32, ptr %27, align 8
  %29 = getelementptr inbounds i8, ptr %12, i64 44
  %30 = load i32, ptr %29, align 4
  %31 = load i32, ptr %9, align 8
  %32 = load i32, ptr %10, align 4
  %33 = icmp sle i32 %30, %31
  %34 = icmp sge i32 %28, %32
  %35 = or i1 %33, %34
  br i1 %35, label %36, label %43

36:                                               ; preds = %26, %11
  %37 = load ptr, ptr %12, align 8
  %38 = icmp eq ptr %37, @nf_sockopts
  br i1 %38, label %39, label %11, !llvm.loop !5

39:                                               ; preds = %36, %1
  %40 = load ptr, ptr @nf_sockopts, align 8
  %41 = getelementptr inbounds i8, ptr %40, i64 8
  store ptr %0, ptr %41, align 8
  store ptr %40, ptr %0, align 8
  %42 = getelementptr inbounds i8, ptr %0, i64 8
  store ptr @nf_sockopts, ptr %42, align 8
  store volatile ptr %0, ptr @nf_sockopts, align 8
  br label %43

43:                                               ; preds = %39, %26, %16
  %44 = phi i32 [ 0, %39 ], [ -16, %26 ], [ -16, %16 ]
  tail call void @mutex_unlock(ptr noundef nonnull @nf_sockopt_mutex) #2
  ret i32 %44
}

; Function Attrs: null_pointer_is_valid
declare dso_local void @mutex_lock(ptr noundef) local_unnamed_addr #1

; Function Attrs: null_pointer_is_valid
declare dso_local void @mutex_unlock(ptr noundef) local_unnamed_addr #1

; Function Attrs: fn_ret_thunk_extern nounwind null_pointer_is_valid
define dso_local void @nf_unregister_sockopt(ptr nocapture noundef %0) #0 align 16 {
  tail call void @mutex_lock(ptr noundef nonnull @nf_sockopt_mutex) #2
  %2 = getelementptr inbounds i8, ptr %0, i64 8
  %3 = load ptr, ptr %2, align 8
  %4 = load ptr, ptr %0, align 8
  %5 = getelementptr inbounds i8, ptr %4, i64 8
  store ptr %3, ptr %5, align 8
  store volatile ptr %4, ptr %3, align 8
  store ptr inttoptr (i64 -2401263026318606080 to ptr), ptr %0, align 8
  store ptr inttoptr (i64 -2401263026318606046 to ptr), ptr %2, align 8
  tail call void @mutex_unlock(ptr noundef nonnull @nf_sockopt_mutex) #2
  ret void
}

; Function Attrs: fn_ret_thunk_extern nounwind null_pointer_is_valid
define dso_local i32 @nf_setsockopt(ptr noundef %0, i8 noundef zeroext %1, i32 noundef %2, ptr %3, i8 %4, i32 noundef %5) #0 align 16 {
  tail call void @mutex_lock(ptr noundef nonnull @nf_sockopt_mutex) #2
  %7 = load ptr, ptr @nf_sockopts, align 8
  %8 = icmp eq ptr %7, @nf_sockopts
  br i1 %8, label %31, label %9

9:                                                ; preds = %28, %6
  %10 = phi ptr [ %29, %28 ], [ %7, %6 ]
  %11 = getelementptr inbounds i8, ptr %10, i64 16
  %12 = load i8, ptr %11, align 8
  %13 = icmp eq i8 %12, %1
  br i1 %13, label %14, label %28

14:                                               ; preds = %9
  %15 = getelementptr inbounds i8, ptr %10, i64 56
  %16 = load ptr, ptr %15, align 8
  %17 = tail call zeroext i1 @try_module_get(ptr noundef %16) #2
  br i1 %17, label %18, label %31

18:                                               ; preds = %14
  %19 = getelementptr inbounds i8, ptr %10, i64 20
  %20 = load i32, ptr %19, align 4
  %21 = icmp sgt i32 %20, %2
  br i1 %21, label %26, label %22

22:                                               ; preds = %18
  %23 = getelementptr inbounds i8, ptr %10, i64 24
  %24 = load i32, ptr %23, align 8
  %25 = icmp sgt i32 %24, %2
  br i1 %25, label %31, label %26

26:                                               ; preds = %22, %18
  %27 = load ptr, ptr %15, align 8
  tail call void @module_put(ptr noundef %27) #2
  br label %28

28:                                               ; preds = %26, %9
  %29 = load ptr, ptr %10, align 8
  %30 = icmp eq ptr %29, @nf_sockopts
  br i1 %30, label %31, label %9, !llvm.loop !8

31:                                               ; preds = %28, %22, %14, %6
  %32 = phi ptr [ inttoptr (i64 -92 to ptr), %6 ], [ %10, %22 ], [ inttoptr (i64 -92 to ptr), %28 ], [ inttoptr (i64 -92 to ptr), %14 ]
  tail call void @mutex_unlock(ptr noundef nonnull @nf_sockopt_mutex) #2
  %33 = icmp ugt ptr %32, inttoptr (i64 -4096 to ptr)
  br i1 %33, label %34, label %37

34:                                               ; preds = %31
  %35 = ptrtoint ptr %32 to i64
  %36 = trunc i64 %35 to i32
  br label %43

37:                                               ; preds = %31
  %38 = getelementptr inbounds i8, ptr %32, i64 32
  %39 = load ptr, ptr %38, align 8
  %40 = tail call i32 %39(ptr noundef %0, i32 noundef %2, ptr %3, i8 %4, i32 noundef %5) #2
  %41 = getelementptr inbounds i8, ptr %32, i64 56
  %42 = load ptr, ptr %41, align 8
  tail call void @module_put(ptr noundef %42) #2
  br label %43

43:                                               ; preds = %37, %34
  %44 = phi i32 [ %36, %34 ], [ %40, %37 ]
  ret i32 %44
}

; Function Attrs: null_pointer_is_valid
declare dso_local void @module_put(ptr noundef) local_unnamed_addr #1

; Function Attrs: fn_ret_thunk_extern nounwind null_pointer_is_valid
define dso_local i32 @nf_getsockopt(ptr noundef %0, i8 noundef zeroext %1, i32 noundef %2, ptr noundef %3, ptr noundef %4) #0 align 16 {
  tail call void @mutex_lock(ptr noundef nonnull @nf_sockopt_mutex) #2
  %6 = load ptr, ptr @nf_sockopts, align 8
  %7 = icmp eq ptr %6, @nf_sockopts
  br i1 %7, label %30, label %8

8:                                                ; preds = %27, %5
  %9 = phi ptr [ %28, %27 ], [ %6, %5 ]
  %10 = getelementptr inbounds i8, ptr %9, i64 16
  %11 = load i8, ptr %10, align 8
  %12 = icmp eq i8 %11, %1
  br i1 %12, label %13, label %27

13:                                               ; preds = %8
  %14 = getelementptr inbounds i8, ptr %9, i64 56
  %15 = load ptr, ptr %14, align 8
  %16 = tail call zeroext i1 @try_module_get(ptr noundef %15) #2
  br i1 %16, label %17, label %30

17:                                               ; preds = %13
  %18 = getelementptr inbounds i8, ptr %9, i64 40
  %19 = load i32, ptr %18, align 8
  %20 = icmp sgt i32 %19, %2
  br i1 %20, label %25, label %21

21:                                               ; preds = %17
  %22 = getelementptr inbounds i8, ptr %9, i64 44
  %23 = load i32, ptr %22, align 4
  %24 = icmp sgt i32 %23, %2
  br i1 %24, label %30, label %25

25:                                               ; preds = %21, %17
  %26 = load ptr, ptr %14, align 8
  tail call void @module_put(ptr noundef %26) #2
  br label %27

27:                                               ; preds = %25, %8
  %28 = load ptr, ptr %9, align 8
  %29 = icmp eq ptr %28, @nf_sockopts
  br i1 %29, label %30, label %8, !llvm.loop !8

30:                                               ; preds = %27, %21, %13, %5
  %31 = phi ptr [ inttoptr (i64 -92 to ptr), %5 ], [ %9, %21 ], [ inttoptr (i64 -92 to ptr), %27 ], [ inttoptr (i64 -92 to ptr), %13 ]
  tail call void @mutex_unlock(ptr noundef nonnull @nf_sockopt_mutex) #2
  %32 = icmp ugt ptr %31, inttoptr (i64 -4096 to ptr)
  br i1 %32, label %33, label %36

33:                                               ; preds = %30
  %34 = ptrtoint ptr %31 to i64
  %35 = trunc i64 %34 to i32
  br label %42

36:                                               ; preds = %30
  %37 = getelementptr inbounds i8, ptr %31, i64 48
  %38 = load ptr, ptr %37, align 8
  %39 = tail call i32 %38(ptr noundef %0, i32 noundef %2, ptr noundef %3, ptr noundef %4) #2
  %40 = getelementptr inbounds i8, ptr %31, i64 56
  %41 = load ptr, ptr %40, align 8
  tail call void @module_put(ptr noundef %41) #2
  br label %42

42:                                               ; preds = %36, %33
  %43 = phi i32 [ %35, %33 ], [ %39, %36 ]
  ret i32 %43
}

; Function Attrs: null_pointer_is_valid
declare dso_local zeroext i1 @try_module_get(ptr noundef) local_unnamed_addr #1


!llvm.module.flags = !{!0, !1, !2, !3, !4}

!0 = !{i32 1, !"wchar_size", i32 2}
!1 = !{i32 8, !"cf-protection-branch", i32 1}
!2 = !{i32 4, !"function_return_thunk_extern", i32 1}
!3 = !{i32 4, !"indirect_branch_cs_prefix", i32 1}
!4 = !{i32 4, !"SkipRaxSetup", i32 1}
!5 = distinct !{!5, !6, !7}
!6 = !{!"llvm.loop.mustprogress"}
!7 = !{!"llvm.loop.unroll.disable"}
!8 = distinct !{!8, !6, !7}
